; Function Attrs: mustprogress nofree norecurse nosync nounwind willreturn memory(argmem: readwrite) uwtable
define hidden void @psa_format_key_data_for_storage(ptr noundef readonly captures(none) %0, i64 noundef %1, ptr noundef readonly captures(none) %2, ptr noundef writeonly captures(none) initializes((0, 36)) %3) local_unnamed_addr #3 {
  store i64 25127461356393296, ptr %3, align 1
  %5 = getelementptr inbounds nuw i8, ptr %3, i64 8
  store i32 0, ptr %5, align 1
  %6 = getelementptr inbounds nuw i8, ptr %3, i64 12
  %7 = getelementptr inbounds nuw i8, ptr %2, i64 4
  %8 = load i32, ptr %7, align 4, !tbaa !3
  store i32 %8, ptr %6, align 1
  %9 = getelementptr inbounds nuw i8, ptr %3, i64 16
  %10 = load i16, ptr %2, align 4, !tbaa !10
  store i16 %10, ptr %9, align 1
  %11 = getelementptr inbounds nuw i8, ptr %3, i64 18
  %12 = getelementptr inbounds nuw i8, ptr %2, i64 2
  %13 = load i16, ptr %12, align 2, !tbaa !11
  store i16 %13, ptr %11, align 1
  %14 = getelementptr inbounds nuw i8, ptr %3, i64 20
  %15 = getelementptr inbounds nuw i8, ptr %2, i64 8
  %16 = load i32, ptr %15, align 4, !tbaa !12
  store i32 %16, ptr %14, align 1
  %17 = getelementptr inbounds nuw i8, ptr %3, i64 24
  %18 = getelementptr inbounds nuw i8, ptr %2, i64 12
  %19 = load i32, ptr %18, align 4, !tbaa !13
  store i32 %19, ptr %17, align 1
  %20 = getelementptr inbounds nuw i8, ptr %3, i64 28
  %21 = getelementptr inbounds nuw i8, ptr %2, i64 16
  %22 = load i32, ptr %21, align 4, !tbaa !14
  store i32 %22, ptr %20, align 1
  %23 = getelementptr inbounds nuw i8, ptr %3, i64 32
  %24 = trunc i64 %1 to i32
  store i32 %24, ptr %23, align 1
  %25 = getelementptr inbounds nuw i8, ptr %3, i64 36
  tail call void @llvm.memcpy.p0.p0.i64(ptr nonnull align 1 %25, ptr align 1 %0, i64 %1, i1 false)
  ret void
}